; Function Attrs: mustprogress uwtable
define i64 @_ZNK8QuantLib15LastFixingQuote13referenceDateEv(ptr nocapture noundef nonnull readonly align 8 dereferenceable(80) %this) local_unnamed_addr #6 align 2 personality ptr @__gxx_personality_v0 {
entry:
  %ref.tmp.i = alloca %"class.QuantLib::Date", align 8
  %index_ = getelementptr inbounds nuw i8, ptr %this, i64 64
  %0 = load ptr, ptr %index_, align 8, !tbaa !39
  %cmp.not.i = icmp eq ptr %0, null
  br i1 %cmp.not.i, label %cond.false.i, label %_ZNK5boost10shared_ptrIN8QuantLib5IndexEEptEv.exit, !prof !46

cond.false.i:                                     ; preds = %entry
  tail call void @_ZN5boost16assertion_failedEPKcS1_S1_l(ptr noundef nonnull @.str.6, ptr noundef nonnull @__PRETTY_FUNCTION__._ZNK5boost10shared_ptrIN8QuantLib5IndexEEptEv, ptr noundef nonnull @.str.7, i64 noundef 784)
  %.pre.i = load ptr, ptr %index_, align 8, !tbaa !39
  br label %_ZNK5boost10shared_ptrIN8QuantLib5IndexEEptEv.exit

_ZNK5boost10shared_ptrIN8QuantLib5IndexEEptEv.exit: ; preds = %entry, %cond.false.i
  %1 = phi ptr [ %0, %entry ], [ %.pre.i, %cond.false.i ]
  %call2 = tail call noundef nonnull align 8 dereferenceable(48) ptr @_ZNK8QuantLib5Index10timeSeriesEv(ptr noundef nonnull align 8 dereferenceable(112) %1)
  %call3 = tail call i64 @_ZNK8QuantLib10TimeSeriesIdSt3mapINS_4DateEdSt4lessIS2_ESaISt4pairIKS2_dEEEE8lastDateEv(ptr noundef nonnull align 8 dereferenceable(48) %call2)
  %2 = load atomic i8, ptr @_ZGVZN8QuantLib9SingletonINS_8SettingsESt17integral_constantIbLb0EEE8instanceEvE8instance acquire, align 8
  %guard.uninitialized.i = icmp eq i8 %2, 0
  br i1 %guard.uninitialized.i, label %init.check.i, label %_ZN8QuantLib9SingletonINS_8SettingsESt17integral_constantIbLb0EEE8instanceEv.exit, !prof !7

init.check.i:                                     ; preds = %_ZNK5boost10shared_ptrIN8QuantLib5IndexEEptEv.exit
  %3 = tail call i32 @__cxa_guard_acquire(ptr nonnull @_ZGVZN8QuantLib9SingletonINS_8SettingsESt17integral_constantIbLb0EEE8instanceEvE8instance) #24
  %tobool.not.i = icmp eq i32 %3, 0
  br i1 %tobool.not.i, label %_ZN8QuantLib9SingletonINS_8SettingsESt17integral_constantIbLb0EEE8instanceEv.exit, label %init.i

init.i:                                           ; preds = %init.check.i
  invoke void @_ZN8QuantLib8SettingsC1Ev(ptr noundef nonnull align 8 dereferenceable(28) @_ZZN8QuantLib9SingletonINS_8SettingsESt17integral_constantIbLb0EEE8instanceEvE8instance)
          to label %invoke.cont.i unwind label %lpad.i

invoke.cont.i:                                    ; preds = %init.i
  %4 = tail call i32 @__cxa_atexit(ptr nonnull @_ZN8QuantLib8SettingsD2Ev, ptr nonnull @_ZZN8QuantLib9SingletonINS_8SettingsESt17integral_constantIbLb0EEE8instanceEvE8instance, ptr nonnull @__dso_handle) #24
  tail call void @__cxa_guard_release(ptr nonnull @_ZGVZN8QuantLib9SingletonINS_8SettingsESt17integral_constantIbLb0EEE8instanceEvE8instance) #24
  br label %_ZN8QuantLib9SingletonINS_8SettingsESt17integral_constantIbLb0EEE8instanceEv.exit

lpad.i:                                           ; preds = %init.i
  %5 = landingpad { ptr, i32 }
          cleanup
  tail call void @__cxa_guard_abort(ptr nonnull @_ZGVZN8QuantLib9SingletonINS_8SettingsESt17integral_constantIbLb0EEE8instanceEvE8instance) #24
  resume { ptr, i32 } %5

_ZN8QuantLib9SingletonINS_8SettingsESt17integral_constantIbLb0EEE8instanceEv.exit: ; preds = %_ZNK5boost10shared_ptrIN8QuantLib5IndexEEptEv.exit, %init.check.i, %invoke.cont.i
  call void @llvm.lifetime.start.p0(i64 8, ptr nonnull %ref.tmp.i) #24
  call void @_ZN8QuantLib4DateC1Ev(ptr noundef nonnull align 8 dereferenceable(8) %ref.tmp.i)
  %6 = load i64, ptr @_ZZN8QuantLib9SingletonINS_8SettingsESt17integral_constantIbLb0EEE8instanceEvE8instance, align 8, !tbaa !30
  %7 = load i64, ptr %ref.tmp.i, align 8, !tbaa !47
  %cmp.i.i = icmp eq i64 %6, %7
  call void @llvm.lifetime.end.p0(i64 8, ptr nonnull %ref.tmp.i) #24
  br i1 %cmp.i.i, label %if.then.i, label %_ZNK8QuantLib8Settings9DateProxycvNS_4DateEEv.exit

if.then.i:                                        ; preds = %_ZN8QuantLib9SingletonINS_8SettingsESt17integral_constantIbLb0EEE8instanceEv.exit
  %call3.i = call i64 @_ZN8QuantLib4Date10todaysDateEv()
  br label %_ZNK8QuantLib8Settings9DateProxycvNS_4DateEEv.exit

_ZNK8QuantLib8Settings9DateProxycvNS_4DateEEv.exit: ; preds = %_ZN8QuantLib9SingletonINS_8SettingsESt17integral_constantIbLb0EEE8instanceEv.exit, %if.then.i
  %retval.sroa.0.0.i = phi i64 [ %call3.i, %if.then.i ], [ %6, %_ZN8QuantLib9SingletonINS_8SettingsESt17integral_constantIbLb0EEE8instanceEv.exit ]
  %retval.sroa.0.0.copyload.sroa.speculated = call i64 @llvm.smin.i64(i64 %retval.sroa.0.0.i, i64 %call3)
  ret i64 %retval.sroa.0.0.copyload.sroa.speculated
}